Certificate:
    Data:
        Version: 3 (0x2)
        Serial Number:
            78:00:00:13:8d:0b:65:ff:17:82:29:2c:5a:00:01:00:00:13:8d
    Signature Algorithm: sha256WithRSAEncryption
        Issuer: DC=com, DC=telstra, DC=dir, DC=core, CN=Telstra AD Objects CA G2
        Validity
            Not Before: Jul  5 09:24:20 2018 GMT
            Not After : Jul  4 09:24:20 2021 GMT
        Subject: C=AU, ST=VIC, L=Melbourne, O=Telstra, OU=Billing Capability, CN=svc-bos-payment-services.sit.corp.telstra.com/emailAddress=Chitradevi.Ramachandran@team.telstra.com
        Subject Public Key Info:
            Public Key Algorithm: rsaEncryption
                Public-Key: (2048 bit)
                Modulus:
                    00:c0:aa:a7:1d:33:e3:35:a9:76:82:59:84:6e:c8:
                    8b:13:35:12:ee:23:fa:7c:60:38:18:b7:90:6d:cd:
                    f2:c4:29:01:ba:b3:7a:48:9c:9f:75:2c:b0:a3:f0:
                    ac:c3:30:f4:50:f1:9b:e4:4e:2d:ea:23:fd:2e:26:
                    11:33:25:d1:50:03:79:b6:83:1b:28:f0:b8:65:69:
                    57:f1:70:fa:5a:86:e5:d8:41:b7:b1:f3:14:02:7e:
                    c0:89:b0:95:b7:61:53:cc:f4:dd:23:26:72:2e:82:
                    08:da:60:d2:4b:2a:65:a4:92:06:d6:04:c4:2a:06:
                    36:8b:d4:62:c4:74:cb:88:9f:de:2a:0e:77:35:a9:
                    07:9a:41:62:01:cd:bb:08:2f:b0:21:a8:9a:d5:f8:
                    c3:95:58:27:7b:b1:d6:1f:97:08:89:81:51:db:f8:
                    87:57:e3:5f:4f:47:6e:9b:52:d4:18:99:64:b5:e9:
                    e5:22:06:7b:b1:67:77:40:4a:66:f7:08:59:4b:22:
                    70:df:06:67:ab:14:ef:e2:8f:af:a5:3f:90:5c:4f:
                    92:29:21:d3:ec:85:99:be:fa:4d:dc:f0:63:c9:aa:
                    28:af:49:b3:1c:d5:82:08:80:80:15:cd:39:0b:9c:
                    e6:5a:91:d4:5e:5f:39:1e:ea:46:47:f1:69:2e:2a:
                    32:57
                Exponent: 65537 (0x10001)
        X509v3 extensions:
            X509v3 Key Usage: 
                Digital Signature, Key Encipherment
            X509v3 Subject Alternative Name: 
                DNS:svc-bos-payment-services.sit.corp.telstra.com
            X509v3 Subject Key Identifier: 
                EB:E8:B1:D4:3A:DC:F1:56:DE:7F:72:E7:76:CA:5B:87:F2:E5:7C:B6
            X509v3 Authority Key Identifier: 
                keyid:8D:E3:F1:B1:F3:71:43:40:0F:48:29:3E:27:9E:38:9A:E2:2F:BB:7A

            X509v3 CRL Distribution Points: 

                Full Name:
                  URI:ldap:///CN=Telstra%20AD%20Objects%20CA%20G2,CN=WSCAS0111,CN=CDP,CN=Public%20Key%20Services,CN=Services,CN=Configuration,DC=core,DC=dir,DC=telstra,DC=com?certificateRevocationList?base?objectClass=cRLDistributionPoint
                  URI:http://telstra-crl.pki.telstra.com.au/Telstra%20AD%20Objects%20CA%20G2.crl

            Authority Information Access: 
                CA Issuers - URI:ldap:///CN=Telstra%20AD%20Objects%20CA%20G2,CN=AIA,CN=Public%20Key%20Services,CN=Services,CN=Configuration,DC=core,DC=dir,DC=telstra,DC=com?cACertificate?base?objectClass=certificationAuthority
                CA Issuers - URI:http://telstra-pki.pki.telstra.com.au/Telstra%20AD%20Objects%20CA%20G2(1).crt
                OCSP - URI:http://telstra-ocsp.pki.telstra.com.au/ocsp

            1.3.6.1.4.1.311.21.7: 
                0..&+.....7....."...S.......\...-~.......8..d...
            X509v3 Extended Key Usage: 
                TLS Web Server Authentication, TLS Web Client Authentication
            1.3.6.1.4.1.311.21.10: 
                0.0
..+.......0
..+.......
            X509v3 Certificate Policies: 
                Policy: 1.3.6.1.4.1.1088.4.27.1.1.1
                  CPS: http://telstra-pki.pki.telstra.com.au/TelstraCPS.pdf

    Signature Algorithm: sha256WithRSAEncryption
         7b:31:93:b7:5e:15:a4:17:b4:1d:54:9f:b7:ee:28:6e:51:10:
         9e:94:ae:9d:dd:f8:9c:32:d5:fc:a2:39:63:1b:47:52:9a:e2:
         52:6e:8c:4b:7e:7f:e6:0b:3b:e1:2e:15:91:02:aa:25:42:5b:
         29:86:18:1d:c1:90:40:fa:d3:32:13:33:d8:ea:a1:b5:75:56:
         28:b6:c5:ae:70:8e:1a:6c:09:e7:91:d4:ae:c4:e8:3b:13:4c:
         4c:b6:d9:90:4d:7b:13:8a:e3:8b:f9:28:c9:0b:2e:07:f0:43:
         18:e4:0a:8a:4c:d6:ef:97:9b:e5:fe:6d:f6:0b:13:29:39:b0:
         71:32:b6:07:ce:c5:37:3e:01:4e:f7:d6:7b:98:ed:6e:5f:e1:
         76:8b:c6:c0:34:19:d5:af:2c:0e:ca:0b:a5:6c:49:e3:e7:13:
         37:0b:56:a5:45:ed:7c:1a:af:ea:a5:a1:b9:6d:0b:ba:69:fe:
         6f:e5:fb:0e:1e:48:f9:99:1c:93:bf:ba:5e:4e:67:35:92:53:
         d0:0e:23:08:34:83:3f:67:6e:61:cc:06:7b:96:44:d2:ae:56:
         4a:e3:64:3a:09:7b:52:9c:ca:92:72:97:61:b2:c5:dc:67:5c:
         55:1c:63:e7:03:04:cd:1e:e9:57:b7:a4:7c:29:d8:8c:6b:de:
         8c:cf:91:04
-----BEGIN CERTIFICATE-----
MIIIDDCCBvSgAwIBAgITeAAAE40LZf8XgiksWgABAAATjTANBgkqhkiG9w0BAQsF
ADB8MRMwEQYKCZImiZPyLGQBGRYDY29tMRcwFQYKCZImiZPyLGQBGRYHdGVsc3Ry
YTETMBEGCgmSJomT8ixkARkWA2RpcjEUMBIGCgmSJomT8ixkARkWBGNvcmUxITAf
BgNVBAMTGFRlbHN0cmEgQUQgT2JqZWN0cyBDQSBHMjAeFw0xODA3MDUwOTI0MjBa
Fw0yMTA3MDQwOTI0MjBaMIHPMQswCQYDVQQGEwJBVTEMMAoGA1UECBMDVklDMRIw
EAYDVQQHEwlNZWxib3VybmUxEDAOBgNVBAoTB1RlbHN0cmExGzAZBgNVBAsTEkJp
bGxpbmcgQ2FwYWJpbGl0eTE2MDQGA1UEAxMtc3ZjLWJvcy1wYXltZW50LXNlcnZp
Y2VzLnNpdC5jb3JwLnRlbHN0cmEuY29tMTcwNQYJKoZIhvcNAQkBFihDaGl0cmFk
ZXZpLlJhbWFjaGFuZHJhbkB0ZWFtLnRlbHN0cmEuY29tMIIBIjANBgkqhkiG9w0B
AQEFAAOCAQ8AMIIBCgKCAQEAwKqnHTPjNal2glmEbsiLEzUS7iP6fGA4GLeQbc3y
xCkBurN6SJyfdSywo/CswzD0UPGb5E4t6iP9LiYRMyXRUAN5toMbKPC4ZWlX8XD6
Wobl2EG3sfMUAn7AibCVt2FTzPTdIyZyLoII2mDSSyplpJIG1gTEKgY2i9RixHTL
iJ/eKg53NakHmkFiAc27CC+wIaia1fjDlVgne7HWH5cIiYFR2/iHV+NfT0dum1LU
GJlktenlIgZ7sWd3QEpm9whZSyJw3wZnqxTv4o+vpT+QXE+SKSHT7IWZvvpN3PBj
yaoor0mzHNWCCICAFc05C5zmWpHUXl85HupGR/FpLioyVwIDAQABo4IEMTCCBC0w
CwYDVR0PBAQDAgWgMDgGA1UdEQQxMC+CLXN2Yy1ib3MtcGF5bWVudC1zZXJ2aWNl
cy5zaXQuY29ycC50ZWxzdHJhLmNvbTAdBgNVHQ4EFgQU6+ix1Drc8Vbef3Lndspb
h/LlfLYwHwYDVR0jBBgwFoAUjePxsfNxQ0APSCk+J544muIvu3owggFABgNVHR8E
ggE3MIIBMzCCAS+gggEroIIBJ4aB2GxkYXA6Ly8vQ049VGVsc3RyYSUyMEFEJTIw
T2JqZWN0cyUyMENBJTIwRzIsQ049V1NDQVMwMTExLENOPUNEUCxDTj1QdWJsaWMl
MjBLZXklMjBTZXJ2aWNlcyxDTj1TZXJ2aWNlcyxDTj1Db25maWd1cmF0aW9uLERD
PWNvcmUsREM9ZGlyLERDPXRlbHN0cmEsREM9Y29tP2NlcnRpZmljYXRlUmV2b2Nh
dGlvbkxpc3Q/YmFzZT9vYmplY3RDbGFzcz1jUkxEaXN0cmlidXRpb25Qb2ludIZK
aHR0cDovL3RlbHN0cmEtY3JsLnBraS50ZWxzdHJhLmNvbS5hdS9UZWxzdHJhJTIw
QUQlMjBPYmplY3RzJTIwQ0ElMjBHMi5jcmwwggF3BggrBgEFBQcBAQSCAWkwggFl
MIHOBggrBgEFBQcwAoaBwWxkYXA6Ly8vQ049VGVsc3RyYSUyMEFEJTIwT2JqZWN0
cyUyMENBJTIwRzIsQ049QUlBLENOPVB1YmxpYyUyMEtleSUyMFNlcnZpY2VzLENO
PVNlcnZpY2VzLENOPUNvbmZpZ3VyYXRpb24sREM9Y29yZSxEQz1kaXIsREM9dGVs
c3RyYSxEQz1jb20/Y0FDZXJ0aWZpY2F0ZT9iYXNlP29iamVjdENsYXNzPWNlcnRp
ZmljYXRpb25BdXRob3JpdHkwWQYIKwYBBQUHMAKGTWh0dHA6Ly90ZWxzdHJhLXBr
aS5wa2kudGVsc3RyYS5jb20uYXUvVGVsc3RyYSUyMEFEJTIwT2JqZWN0cyUyMENB
JTIwRzIoMSkuY3J0MDcGCCsGAQUFBzABhitodHRwOi8vdGVsc3RyYS1vY3NwLnBr
aS50ZWxzdHJhLmNvbS5hdS9vY3NwMD0GCSsGAQQBgjcVBwQwMC4GJisGAQQBgjcV
CITUjiKC7d9ThfWDGILGvFyFh7stfobKnQaF3fM4AgFkAgEFMB0GA1UdJQQWMBQG
CCsGAQUFBwMBBggrBgEFBQcDAjAnBgkrBgEEAYI3FQoEGjAYMAoGCCsGAQUFBwMB
MAoGCCsGAQUFBwMCMF4GA1UdIARXMFUwUwYMKwYBBAGIQAQbAQEBMEMwQQYIKwYB
BQUHAgEWNWh0dHA6Ly90ZWxzdHJhLXBraS5wa2kudGVsc3RyYS5jb20uYXUvVGVs
c3RyYUNQUy5wZGYAMA0GCSqGSIb3DQEBCwUAA4IBAQB7MZO3XhWkF7QdVJ+37ihu
URCelK6d3ficMtX8ojljG0dSmuJSboxLfn/mCzvhLhWRAqolQlsphhgdwZBA+tMy
EzPY6qG1dVYotsWucI4abAnnkdSuxOg7E0xMttmQTXsTiuOL+SjJCy4H8EMY5AqK
TNbvl5vl/m32CxMpObBxMrYHzsU3PgFO99Z7mO1uX+F2i8bANBnVrywOygulbEnj
5xM3C1alRe18Gq/qpaG5bQu6af5v5fsOHkj5mRyTv7peTmc1klPQDiMINIM/Z25h
zAZ7lkTSrlZK42Q6CXtSnMqScpdhssXcZ1xVHGPnAwTNHulXt6R8KdiMa96Mz5EE
-----END CERTIFICATE-----

Certificate:
    Data:
        Version: 3 (0x2)
        Serial Number:
            65:00:00:00:04:5a:7a:eb:69:f2:83:dd:f8:00:00:00:00:00:04
    Signature Algorithm: sha256WithRSAEncryption
        Issuer: CN=Telstra Root CA G2
        Validity
            Not Before: Nov  7 02:05:14 2016 GMT
            Not After : Nov  7 02:15:14 2023 GMT
        Subject: DC=com, DC=telstra, DC=dir, DC=core, CN=Telstra AD Objects CA G2
        Subject Public Key Info:
            Public Key Algorithm: rsaEncryption
                Public-Key: (2048 bit)
                Modulus:
                    00:b8:1a:73:cf:ca:76:a3:6e:d1:b9:f3:9a:39:90:
                    5b:ab:d0:2f:8b:cb:dc:2a:73:57:59:48:57:ab:dc:
                    6b:a1:30:ab:04:ff:46:59:88:60:0b:94:65:5b:b6:
                    44:56:a4:77:55:d3:c6:1c:7d:0a:4a:82:64:82:2c:
                    c7:3a:b9:92:5b:82:d5:3b:b0:b5:a1:b9:b5:55:44:
                    9a:85:ae:8c:b7:88:db:82:72:bf:49:49:79:95:be:
                    e8:07:86:cb:b5:49:74:a4:12:5c:28:22:63:93:07:
                    41:99:73:a9:e4:0c:b1:99:52:fc:52:b2:bb:b3:8b:
                    e6:1c:85:b7:ea:87:d3:e5:7a:25:59:6c:69:c6:60:
                    39:49:45:b4:ed:41:84:c9:93:e9:34:45:d7:98:d8:
                    98:11:fe:1f:f9:27:67:68:be:73:22:68:0c:08:46:
                    9f:37:e8:8a:c3:95:0f:b2:f4:9f:31:d9:c8:15:38:
                    3b:9a:c9:82:26:e5:86:a8:8b:f7:ea:8c:52:0e:e4:
                    35:32:87:63:59:7e:29:e4:27:0a:8c:2b:43:58:f3:
                    70:11:18:ba:5d:d4:17:40:c8:a2:4f:b8:fd:9f:26:
                    d8:02:d5:5a:59:e8:58:80:15:c0:86:e8:d0:37:b7:
                    c0:98:4a:a6:fd:25:5b:69:7a:00:47:b6:df:7d:7d:
                    1f:01
                Exponent: 65537 (0x10001)
        X509v3 extensions:
            1.3.6.1.4.1.311.21.1: 
                ...
            1.3.6.1.4.1.311.21.2: 
                ..)%...3.*...t#.......
            X509v3 Subject Key Identifier: 
                8D:E3:F1:B1:F3:71:43:40:0F:48:29:3E:27:9E:38:9A:E2:2F:BB:7A
            X509v3 Certificate Policies: 
                Policy: 1.3.6.1.4.1.1088.4.27.1.1.1
                  User Notice:
                    Explicit Text: 
                  CPS: http://telstra-pki.pki.telstra.com.au/TelstraCPS.pdf

            1.3.6.1.4.1.311.20.2: 
                .
.S.u.b.C.A
            X509v3 Key Usage: 
                Digital Signature, Certificate Sign, CRL Sign
            X509v3 Basic Constraints: critical
                CA:TRUE, pathlen:0
            X509v3 Authority Key Identifier: 
                keyid:63:69:D8:82:94:7B:1F:E5:CC:81:BE:30:2E:6D:F6:EB:22:86:1D:45

            X509v3 CRL Distribution Points: 

                Full Name:
                  URI:http://telstra-crl.pki.telstra.com.au/Telstra%20Root%20CA%20G2.crl
                  URI:ldap:///CN=Telstra%20Root%20CA%20G2,CN=wscar0103,CN=CDP,CN=Public%20Key%20Services,CN=Services,CN=Configuration,DC=core,DC=dir,DC=telstra,DC=com?certificateRevocationList?base?objectClass=cRLDistributionPoint

            Authority Information Access: 
                CA Issuers - URI:http://telstra-pki.pki.telstra.com.au/Telstra%20Root%20CA%20G2.crt

    Signature Algorithm: sha256WithRSAEncryption
         c9:b8:38:de:98:fd:3e:14:12:fe:0a:d9:a8:a3:5b:b7:b4:4c:
         d8:e2:61:df:e5:4e:bc:22:65:7d:44:6a:1c:25:a6:3b:21:fe:
         aa:f3:34:c5:c8:ef:7b:0c:c7:32:63:4b:77:31:94:8a:19:d6:
         8f:2c:97:1e:77:81:34:a6:27:62:0c:7b:98:62:ed:76:ae:47:
         16:fd:ed:c1:45:e2:89:d7:22:4f:7e:1b:c2:c9:d7:5b:a2:de:
         81:4b:4d:0b:68:1f:5f:1c:49:79:00:2c:84:91:3e:1f:52:e5:
         1a:eb:75:5e:68:12:e7:b0:a2:73:de:e5:0b:33:2e:45:58:6b:
         f3:eb:6d:3b:12:c4:48:e1:e6:1b:c0:c3:82:02:0e:44:bf:00:
         13:01:9d:48:d7:15:bc:1c:6c:42:e8:d7:e7:e8:48:a7:6d:f6:
         30:45:03:55:a7:eb:9c:fb:a1:bc:34:2d:db:13:ac:aa:ff:42:
         b8:67:d7:a0:ba:4b:10:ed:bb:c7:80:93:49:1a:9d:5c:bd:f0:
         35:13:6e:05:98:c5:01:b9:8d:f7:fe:ca:44:a3:73:43:80:bb:
         cf:0b:07:87:89:8d:d5:8c:4e:33:3f:8b:60:1e:cf:85:77:d2:
         bf:58:08:c8:ed:76:03:de:c8:d1:aa:d6:bd:fe:49:66:b1:f3:
         a4:16:de:e2:9b:3e:50:18:4b:a6:0e:43:78:ca:d5:95:31:da:
         53:51:57:a5:e0:c4:a7:06:78:23:40:ee:01:9f:f3:13:5a:e5:
         66:51:b0:ef:d1:90:9c:f7:e7:7f:23:a5:fd:08:f7:6e:65:7a:
         df:ee:31:3d:fd:bf:35:a1:9b:fb:d0:db:ef:79:22:55:00:67:
         d2:6a:c4:d4:15:18:14:2c:66:6d:a6:fe:8e:43:d0:73:55:11:
         89:19:79:2c:31:bb:04:c6:77:b7:ab:2c:30:fe:a6:94:07:74:
         28:5a:62:15:1b:8a:2a:d4:54:21:66:61:d8:75:08:38:83:c1:
         0a:b6:78:e5:fb:12:63:3e:b8:b3:de:87:d2:8f:4d:16:eb:c7:
         51:6e:25:31:66:ac:c2:25:ca:2d:0d:cc:31:c4:9a:54:6b:1b:
         df:44:b4:2a:93:88:d9:e8:94:67:5c:19:58:4b:66:6d:38:62:
         cf:1e:15:13:3d:b1:b1:20:ba:06:8c:22:09:3b:54:54:bb:b0:
         00:1c:05:a5:a0:b9:5c:d5:9c:29:ed:18:68:d7:1a:2e:d6:1e:
         19:24:cd:ec:67:b0:cc:05:a0:d1:d5:2c:e0:21:61:5f:94:38:
         06:96:5e:92:28:4b:9c:b3:80:e9:1f:da:0f:84:8c:e4:df:82:
         ee:59:64:06:a5:08:8a:3c
-----BEGIN CERTIFICATE-----
MIIIATCCBemgAwIBAgITZQAAAARaeutp8oPd+AAAAAAABDANBgkqhkiG9w0BAQsF
ADAdMRswGQYDVQQDExJUZWxzdHJhIFJvb3QgQ0EgRzIwHhcNMTYxMTA3MDIwNTE0
WhcNMjMxMTA3MDIxNTE0WjB8MRMwEQYKCZImiZPyLGQBGRYDY29tMRcwFQYKCZIm
iZPyLGQBGRYHdGVsc3RyYTETMBEGCgmSJomT8ixkARkWA2RpcjEUMBIGCgmSJomT
8ixkARkWBGNvcmUxITAfBgNVBAMTGFRlbHN0cmEgQUQgT2JqZWN0cyBDQSBHMjCC
ASIwDQYJKoZIhvcNAQEBBQADggEPADCCAQoCggEBALgac8/KdqNu0bnzmjmQW6vQ
L4vL3CpzV1lIV6vca6EwqwT/RlmIYAuUZVu2RFakd1XTxhx9CkqCZIIsxzq5kluC
1TuwtaG5tVVEmoWujLeI24Jyv0lJeZW+6AeGy7VJdKQSXCgiY5MHQZlzqeQMsZlS
/FKyu7OL5hyFt+qH0+V6JVlsacZgOUlFtO1BhMmT6TRF15jYmBH+H/knZ2i+cyJo
DAhGnzfoisOVD7L0nzHZyBU4O5rJgiblhqiL9+qMUg7kNTKHY1l+KeQnCowrQ1jz
cBEYul3UF0DIok+4/Z8m2ALVWlnoWIAVwIbo0De3wJhKpv0lW2l6AEe23319HwEC
AwEAAaOCA9kwggPVMBAGCSsGAQQBgjcVAQQDAgEBMCMGCSsGAQQBgjcVAgQWBBQp
JfIFDDOZKrTMHXQj0wmprxCBizAdBgNVHQ4EFgQUjePxsfNxQ0APSCk+J544muIv
u3owggGKBgNVHSAEggGBMIIBfTCCAXkGDCsGAQQBiEAEGwEBATCCAWcwggEgBggr
BgEFBQcCAjCCARIeggEOAEYAbwByACAAYQAgAGMAbwBwAHkAIABvAGYAIAB0AGgA
ZQAgAFQAZQBsAHMAdAByAGEAIABQAEsASQAgAEMAUABTACwAIABjAGwAaQBjAGsA
IABNAG8AcgBlACAASQBuAGYAbwAuACAARgBvAHIAIABDAFAAUwAgAHEAdQBlAHIA
aQBlAHMAIABjAG8AbgB0AGEAYwB0ACAAdABoAGUAIABHAG8AdgBlAHIAbgBhAG4A
YwBlACAAQwBvAHUAbgBjAGkAbAAsACAARQBtAGEAaQBsADoAIABUAGUAbABzAHQA
cgBhAC4AUABHAEMAQAB0AGUAYQBtAC4AdABlAGwAcwB0AHIAYQAuAGMAbwBtMEEG
CCsGAQUFBwIBFjVodHRwOi8vdGVsc3RyYS1wa2kucGtpLnRlbHN0cmEuY29tLmF1
L1RlbHN0cmFDUFMucGRmADAZBgkrBgEEAYI3FAIEDB4KAFMAdQBiAEMAQTALBgNV
HQ8EBAMCAYYwEgYDVR0TAQH/BAgwBgEB/wIBADAfBgNVHSMEGDAWgBRjadiClHsf
5cyBvjAubfbrIoYdRTCCATAGA1UdHwSCAScwggEjMIIBH6CCARugggEXhkJodHRw
Oi8vdGVsc3RyYS1jcmwucGtpLnRlbHN0cmEuY29tLmF1L1RlbHN0cmElMjBSb290
JTIwQ0ElMjBHMi5jcmyGgdBsZGFwOi8vL0NOPVRlbHN0cmElMjBSb290JTIwQ0El
MjBHMixDTj13c2NhcjAxMDMsQ049Q0RQLENOPVB1YmxpYyUyMEtleSUyMFNlcnZp
Y2VzLENOPVNlcnZpY2VzLENOPUNvbmZpZ3VyYXRpb24sREM9Y29yZSxEQz1kaXIs
REM9dGVsc3RyYSxEQz1jb20/Y2VydGlmaWNhdGVSZXZvY2F0aW9uTGlzdD9iYXNl
P29iamVjdENsYXNzPWNSTERpc3RyaWJ1dGlvblBvaW50MF4GCCsGAQUFBwEBBFIw
UDBOBggrBgEFBQcwAoZCaHR0cDovL3RlbHN0cmEtcGtpLnBraS50ZWxzdHJhLmNv
bS5hdS9UZWxzdHJhJTIwUm9vdCUyMENBJTIwRzIuY3J0MA0GCSqGSIb3DQEBCwUA
A4ICAQDJuDjemP0+FBL+Ctmoo1u3tEzY4mHf5U68ImV9RGocJaY7If6q8zTFyO97
DMcyY0t3MZSKGdaPLJced4E0pidiDHuYYu12rkcW/e3BReKJ1yJPfhvCyddbot6B
S00LaB9fHEl5ACyEkT4fUuUa63VeaBLnsKJz3uULMy5FWGvz6207EsRI4eYbwMOC
Ag5EvwATAZ1I1xW8HGxC6Nfn6EinbfYwRQNVp+uc+6G8NC3bE6yq/0K4Z9eguksQ
7bvHgJNJGp1cvfA1E24FmMUBuY33/spEo3NDgLvPCweHiY3VjE4zP4tgHs+Fd9K/
WAjI7XYD3sjRqta9/klmsfOkFt7imz5QGEumDkN4ytWVMdpTUVel4MSnBngjQO4B
n/MTWuVmUbDv0ZCc9+d/I6X9CPduZXrf7jE9/b81oZv70NvveSJVAGfSasTUFRgU
LGZtpv6OQ9BzVRGJGXksMbsExne3qyww/qaUB3QoWmIVG4oq1FQhZmHYdQg4g8EK
tnjl+xJjPriz3ofSj00W68dRbiUxZqzCJcotDcwxxJpUaxvfRLQqk4jZ6JRnXBlY
S2ZtOGLPHhUTPbGxILoGjCIJO1RUu7AAHAWloLlc1Zwp7Rho1xou1h4ZJM3sZ7DM
BaDR1SzgIWFflDgGll6SKEucs4DpH9oPhIzk34LuWWQGpQiKPA==
-----END CERTIFICATE-----

Certificate:
    Data:
        Version: 3 (0x2)
        Serial Number:
            62:0a:a6:29:d5:c1:9b:b3:48:6a:a5:d6:b9:bd:30:43
    Signature Algorithm: sha1WithRSAEncryption
        Issuer: CN=Telstra Root CA G2
        Validity
            Not Before: Sep 29 06:09:11 2016 GMT
            Not After : Sep 29 06:19:10 2041 GMT
        Subject: CN=Telstra Root CA G2
        Subject Public Key Info:
            Public Key Algorithm: rsaEncryption
                Public-Key: (4096 bit)
                Modulus:
                    00:df:d5:d8:b2:bd:d7:c3:b0:47:db:18:59:9a:04:
                    a1:22:eb:15:28:c4:de:46:9e:dd:35:9c:b2:77:c2:
                    fe:ed:c4:a7:be:59:b8:5e:1e:3e:5a:f5:b0:3b:4d:
                    fa:96:3b:e4:b8:65:e6:5e:c2:cb:a6:19:47:72:f1:
                    ee:d3:2c:9a:66:ca:a4:3f:ac:33:d3:98:bd:ff:2a:
                    19:79:29:e7:3c:9e:96:94:5e:ff:f9:df:ac:24:60:
                    ee:b4:7e:68:e1:ae:94:70:a2:ef:c4:ad:53:06:9d:
                    f6:66:28:71:af:d5:34:33:4d:9e:22:42:6c:b9:eb:
                    06:5f:54:cc:c3:7e:40:1c:44:f6:b0:29:e2:e9:ed:
                    c8:9d:1d:25:67:75:62:16:ab:81:17:8e:89:ee:f9:
                    0c:ac:31:4d:b8:86:dc:aa:89:3c:14:de:9d:dc:1c:
                    25:04:fb:c1:4f:29:4b:29:d5:3d:e3:ae:a2:84:e5:
                    7d:07:96:10:cb:a3:d5:f5:66:57:3e:96:fb:43:50:
                    f2:96:ff:cd:78:18:97:05:bc:01:cd:14:b6:2c:2b:
                    d9:e1:5e:80:e2:4d:0a:e7:79:98:71:4a:81:88:00:
                    78:9b:73:1f:8e:b9:62:a1:5e:ce:bd:14:18:1c:97:
                    84:46:05:72:ee:29:30:c0:6b:29:6c:dc:e2:85:78:
                    02:5a:2d:f1:6a:ed:9c:2a:95:55:0d:0f:e6:37:e4:
                    e8:8a:52:ad:2e:65:33:d0:05:3b:48:1a:07:ef:6a:
                    1b:f3:bf:6e:02:78:3a:12:97:34:37:ea:72:6d:a6:
                    a2:42:4f:12:1c:83:d5:a8:bc:57:11:90:33:59:7a:
                    3c:86:d6:22:44:e6:f9:91:b0:d5:f8:b4:cb:32:fa:
                    24:9f:2a:cc:12:58:71:53:59:7e:d0:e4:d2:7f:48:
                    f8:df:7c:08:3e:3d:09:b8:4d:35:d1:cb:44:b3:46:
                    4d:fe:ed:75:39:cd:c9:0b:ca:6e:4e:87:41:53:a7:
                    67:fb:fc:f8:c8:93:33:60:cf:98:67:d4:42:87:1e:
                    95:2f:c2:d4:ed:46:49:7a:6a:a8:57:98:d9:1a:26:
                    b3:99:85:1f:76:46:df:65:35:a8:b8:76:a0:c1:00:
                    6f:e4:16:96:cc:a7:3e:fe:10:bd:66:ec:5f:b4:73:
                    f0:67:69:69:4e:26:bc:0b:f3:5b:3a:78:8a:08:c3:
                    6b:9e:2b:e8:e0:b3:c8:e2:96:4b:10:36:24:de:b7:
                    18:14:78:72:5f:17:44:03:c7:3d:ac:4e:7f:56:b1:
                    1a:65:64:be:fa:7d:89:ac:69:00:19:f4:83:f7:60:
                    1e:be:81:8b:a6:a8:ec:81:eb:87:b0:17:cf:b8:32:
                    bb:90:0f
                Exponent: 65537 (0x10001)
        X509v3 extensions:
            X509v3 Key Usage: 
                Digital Signature, Certificate Sign, CRL Sign
            X509v3 Basic Constraints: critical
                CA:TRUE, pathlen:1
            X509v3 Subject Key Identifier: 
                63:69:D8:82:94:7B:1F:E5:CC:81:BE:30:2E:6D:F6:EB:22:86:1D:45
            1.3.6.1.4.1.311.21.1: 
                ...
            X509v3 Certificate Policies: 
                Policy: 1.3.6.1.4.1.1088.4.27.1.1.1
                  User Notice:
                    Explicit Text: 
                  CPS: http://telstra-pki.telstra.com.au/TelstraCPS.pdf

    Signature Algorithm: sha1WithRSAEncryption
         39:1d:77:5b:f4:a9:47:2a:c3:cb:78:6c:3d:06:bb:17:c0:be:
         90:d3:f2:95:84:f0:79:74:02:b6:3e:ca:4c:31:1a:ad:ce:af:
         f7:4d:67:ba:a2:f4:b3:43:a6:e3:30:a4:19:14:e4:7c:01:2e:
         8b:53:2d:30:ea:e8:b0:46:56:46:8c:99:2b:eb:8d:da:b8:06:
         1f:3e:ca:68:01:1c:b1:19:37:29:b3:ab:94:6f:cf:4d:cc:10:
         5a:44:0f:56:09:0a:9e:ec:4f:cc:0d:74:b4:4d:48:49:c6:32:
         d3:d4:b4:32:5b:ac:1b:d4:0f:dc:41:95:20:7b:1c:6d:e2:4c:
         5f:a3:cf:24:42:90:e9:98:57:89:f7:b0:15:94:dc:82:a5:97:
         d5:8b:cc:7e:ca:da:d0:de:69:5a:c6:ff:d1:dd:64:76:38:6b:
         95:32:ea:99:9a:ce:30:c8:88:8e:3e:f3:13:dd:fc:6b:12:a5:
         39:6a:14:c4:76:5c:96:ee:eb:c6:49:15:6f:6b:e7:24:fd:2c:
         bb:53:35:a0:78:da:24:bd:d6:7d:20:cc:6c:e5:d8:3e:23:b1:
         f6:ad:19:dc:6c:b8:dc:1f:2b:0f:f8:f4:89:20:6d:64:18:1b:
         b6:dd:ad:45:47:47:6c:47:46:5c:7e:f9:4a:74:9d:88:94:80:
         5a:d1:85:15:68:d7:d0:d9:9f:fc:5a:da:71:15:61:4a:17:24:
         78:99:c7:18:8d:dc:dd:22:5e:b5:7c:e4:fc:2c:57:8a:b7:4e:
         0f:10:ba:6e:ad:41:01:03:fe:06:45:68:72:7d:e6:89:2e:cd:
         d2:21:ba:c0:aa:a4:1c:ec:35:cd:54:3a:51:4a:ca:a1:38:02:
         a3:1c:24:7d:35:0b:ff:4b:4b:0b:36:5f:7e:91:a4:12:2a:31:
         32:6c:60:1b:1f:68:fd:e8:51:e5:6a:5e:d6:7d:be:26:8a:38:
         3c:26:78:30:96:b7:05:94:f3:d6:1a:d2:d4:fe:23:41:02:2e:
         8a:7b:be:3f:be:f4:d0:00:79:25:84:8b:e5:3c:d0:a1:ac:3a:
         8b:65:57:64:9a:14:9f:6a:38:4d:6d:ea:de:b0:fa:10:47:0b:
         86:ab:1d:03:3c:37:92:6e:3d:06:23:22:58:92:f1:11:0b:b3:
         8d:c2:66:54:86:14:df:e3:4a:f7:6f:82:86:b5:9e:7a:f4:2b:
         e4:3c:2e:7a:96:b4:41:b3:57:50:c5:55:cc:9e:5a:38:58:d4:
         e3:7b:7d:2c:63:82:20:02:8b:10:3c:43:e8:c0:2b:32:be:50:
         e1:9a:e4:d7:be:32:8e:f9:ce:41:55:df:ee:0f:d2:ee:46:76:
         fc:6f:c7:5d:a2:6b:e0:ec
-----BEGIN CERTIFICATE-----
MIIHJDCCBQygAwIBAgIQYgqmKdXBm7NIaqXWub0wQzANBgkqhkiG9w0BAQUFADAd
MRswGQYDVQQDExJUZWxzdHJhIFJvb3QgQ0EgRzIwHhcNMTYwOTI5MDYwOTExWhcN
NDEwOTI5MDYxOTEwWjAdMRswGQYDVQQDExJUZWxzdHJhIFJvb3QgQ0EgRzIwggIi
MA0GCSqGSIb3DQEBAQUAA4ICDwAwggIKAoICAQDf1diyvdfDsEfbGFmaBKEi6xUo
xN5Gnt01nLJ3wv7txKe+WbheHj5a9bA7TfqWO+S4ZeZewsumGUdy8e7TLJpmyqQ/
rDPTmL3/Khl5Kec8npaUXv/536wkYO60fmjhrpRwou/ErVMGnfZmKHGv1TQzTZ4i
Qmy56wZfVMzDfkAcRPawKeLp7cidHSVndWIWq4EXjonu+QysMU24htyqiTwU3p3c
HCUE+8FPKUsp1T3jrqKE5X0HlhDLo9X1Zlc+lvtDUPKW/814GJcFvAHNFLYsK9nh
XoDiTQrneZhxSoGIAHibcx+OuWKhXs69FBgcl4RGBXLuKTDAayls3OKFeAJaLfFq
7ZwqlVUND+Y35OiKUq0uZTPQBTtIGgfvahvzv24CeDoSlzQ36nJtpqJCTxIcg9Wo
vFcRkDNZejyG1iJE5vmRsNX4tMsy+iSfKswSWHFTWX7Q5NJ/SPjffAg+PQm4TTXR
y0SzRk3+7XU5zckLym5Oh0FTp2f7/PjIkzNgz5hn1EKHHpUvwtTtRkl6aqhXmNka
JrOZhR92Rt9lNai4dqDBAG/kFpbMpz7+EL1m7F+0c/BnaWlOJrwL81s6eIoIw2ue
K+jgs8jilksQNiTetxgUeHJfF0QDxz2sTn9WsRplZL76fYmsaQAZ9IP3YB6+gYum
qOyB64ewF8+4MruQDwIDAQABo4ICXjCCAlowCwYDVR0PBAQDAgGGMBIGA1UdEwEB
/wQIMAYBAf8CAQEwHQYDVR0OBBYEFGNp2IKUex/lzIG+MC5t9usihh1FMBAGCSsG
AQQBgjcVAQQDAgEAMIICBAYDVR0gBIIB+zCCAfcwggHzBgwrBgEEAYhABBsBAQEw
ggHhMIIBngYIKwYBBQUHAgIwggGQHoIBjABDAGUAcgB0AGkAZgBpAGMAYQB0AGUA
IABQAHIAYQBjAHQAaQBjAGUAIABTAHQAYQB0AGUAbQBlAG4AdAAgAGEAdAAgAGgA
dAB0AHAAOgAvAC8AdABlAGwAcwB0AHIAYQAtAHAAawBpAC4AdABlAGwAcwB0AHIA
YQAuAGMAbwBtAC4AYQB1AC8AVABlAGwAcwB0AHIAYQBDAFAAUwAuAHAAZABmACwA
IABDAG8AbgB0AGEAYwB0ACAAdABoAGUAIABUAGUAbABzAHQAcgBhACAAVAByAHUA
cwB0ACAARQBuAHYAaQByAG8AbgBtAGUAbgB0ACAARwBvAHYAZQByAG4AYQBuAGMA
ZQAgAEMAbwB1AG4AYwBpAGwAIABmAG8AcgAgAGYAdQByAHQAaABlAHIAIABpAG4A
ZgBvAHIAbQBhAHQAaQBvAG4ALAAgAEUAbQBhAGkAbAA6ACAAZgAxADEAMAAxADEA
NwAwAEAAdABlAGEAbQAuAHQAZQBsAHMAdAByAGEALgBjAG8AbTA9BggrBgEFBQcC
ARYxaHR0cDovL3RlbHN0cmEtcGtpLnRlbHN0cmEuY29tLmF1L1RlbHN0cmFDUFMu
cGRmADANBgkqhkiG9w0BAQUFAAOCAgEAOR13W/SpRyrDy3hsPQa7F8C+kNPylYTw
eXQCtj7KTDEarc6v901nuqL0s0Om4zCkGRTkfAEui1MtMOrosEZWRoyZK+uN2rgG
Hz7KaAEcsRk3KbOrlG/PTcwQWkQPVgkKnuxPzA10tE1IScYy09S0MlusG9QP3EGV
IHscbeJMX6PPJEKQ6ZhXifewFZTcgqWX1YvMfsra0N5pWsb/0d1kdjhrlTLqmZrO
MMiIjj7zE938axKlOWoUxHZclu7rxkkVb2vnJP0su1M1oHjaJL3WfSDMbOXYPiOx
9q0Z3Gy43B8rD/j0iSBtZBgbtt2tRUdHbEdGXH75SnSdiJSAWtGFFWjX0Nmf/Fra
cRVhShckeJnHGI3c3SJetXzk/CxXirdODxC6bq1BAQP+BkVocn3miS7N0iG6wKqk
HOw1zVQ6UUrKoTgCoxwkfTUL/0tLCzZffpGkEioxMmxgGx9o/ehR5Wpe1n2+Joo4
PCZ4MJa3BZTz1hrS1P4jQQIuinu+P7700AB5JYSL5TzQoaw6i2VXZJoUn2o4TW3q
3rD6EEcLhqsdAzw3km49BiMiWJLxEQuzjcJmVIYU3+NK92+ChrWeevQr5Dwuepa0
QbNXUMVVzJ5aOFjU43t9LGOCIAKLEDxD6MArMr5Q4Zrk174yjvnOQVXf7g/S7kZ2
/G/HXaJr4Ow=
-----END CERTIFICATE-----

